target datalayout = "e-m:e-p270:32:32-p271:32:32-p272:64:64-i64:64-i128:128-f80:128-n8:16:32:64-S128"
target triple = "x86_64-pc-linux-gnu"

%struct.AVProbeData = type { ptr, ptr, i32, ptr }

@.str.3 = private unnamed_addr constant [6 x i8] c"ADPCM\00", align 1

; Function Attrs: nounwind uwtable
define internal i32 @alp_probe(ptr noundef %0) #0 {
  %2 = alloca i32, align 4
  %3 = alloca ptr, align 8
  %4 = alloca i32, align 4
  %5 = alloca i32, align 4
  store ptr %0, ptr %3, align 8, !tbaa !4
  call void @llvm.lifetime.start.p0(i64 4, ptr %4) #4
  %6 = load ptr, ptr %3, align 8, !tbaa !4
  %7 = getelementptr inbounds nuw %struct.AVProbeData, ptr %6, i32 0, i32 1
  %8 = load ptr, ptr %7, align 8, !tbaa !9
  %9 = load i32, ptr %8, align 1, !tbaa !13
  %10 = icmp ne i32 %9, 542133313
  br i1 %10, label %11, label %12

11:                                               ; preds = %1
  store i32 0, ptr %2, align 4
  store i32 1, ptr %5, align 4
  br label %33

12:                                               ; preds = %1
  %13 = load ptr, ptr %3, align 8, !tbaa !4
  %14 = getelementptr inbounds nuw %struct.AVProbeData, ptr %13, i32 0, i32 1
  %15 = load ptr, ptr %14, align 8, !tbaa !9
  %16 = getelementptr inbounds i8, ptr %15, i64 4
  %17 = load i32, ptr %16, align 1, !tbaa !13
  store i32 %17, ptr %4, align 4, !tbaa !14
  %18 = load i32, ptr %4, align 4, !tbaa !14
  %19 = icmp ne i32 %18, 8
  br i1 %19, label %20, label %24

20:                                               ; preds = %12
  %21 = load i32, ptr %4, align 4, !tbaa !14
  %22 = icmp ne i32 %21, 12
  br i1 %22, label %23, label %24

23:                                               ; preds = %20
  store i32 0, ptr %2, align 4
  store i32 1, ptr %5, align 4
  br label %33

24:                                               ; preds = %20, %12
  %25 = load ptr, ptr %3, align 8, !tbaa !4
  %26 = getelementptr inbounds nuw %struct.AVProbeData, ptr %25, i32 0, i32 1
  %27 = load ptr, ptr %26, align 8, !tbaa !9
  %28 = getelementptr inbounds i8, ptr %27, i64 8
  %29 = call i32 @strncmp(ptr noundef @.str.3, ptr noundef %28, i64 noundef 6) #5
  %30 = icmp ne i32 %29, 0
  br i1 %30, label %31, label %32

31:                                               ; preds = %24
  store i32 0, ptr %2, align 4
  store i32 1, ptr %5, align 4
  br label %33

32:                                               ; preds = %24
  store i32 99, ptr %2, align 4
  store i32 1, ptr %5, align 4
  br label %33

33:                                               ; preds = %32, %31, %23, %11
  call void @llvm.lifetime.end.p0(i64 4, ptr %4) #4
  %34 = load i32, ptr %2, align 4
  ret i32 %34
}