; Function Attrs: mustprogress nofree norecurse nounwind willreturn memory(read, inaccessiblemem: none) uwtable
define internal range(i32 0, 100) i32 @alp_probe(ptr noundef readonly captures(none) %0) #0 {
  %2 = getelementptr inbounds nuw i8, ptr %0, i64 8
  %3 = load ptr, ptr %2, align 8, !tbaa !4
  %4 = load i32, ptr %3, align 1, !tbaa !11
  %.not = icmp eq i32 %4, 542133313
  br i1 %.not, label %5, label %12

5:                                                ; preds = %1
  %6 = getelementptr inbounds nuw i8, ptr %3, i64 4
  %7 = load i32, ptr %6, align 1, !tbaa !11
  %8 = and i32 %7, -5
  %or.cond.not = icmp eq i32 %8, 8
  br i1 %or.cond.not, label %9, label %12

9:                                                ; preds = %5
  %10 = getelementptr inbounds nuw i8, ptr %3, i64 8
  %11 = tail call i32 @strncmp(ptr noundef nonnull dereferenceable(6) @.str.3, ptr noundef nonnull dereferenceable(1) %10, i64 noundef 6) #4
  %.not6 = icmp eq i32 %11, 0
  %. = select i1 %.not6, i32 99, i32 0
  br label %12

12:                                               ; preds = %9, %5, %1
  %.0 = phi i32 [ 0, %1 ], [ 0, %5 ], [ %., %9 ]
  ret i32 %.0
}